; Function Attrs: mustprogress uwtable
define internal noundef nonnull ptr @_ZN7testing8internal15TestFactoryImplIN4absl18container_internal12_GLOBAL__N_128Fixture_ConstructOneArg_TestEE10CreateTestEv(ptr nonnull readnone align 8 captures(none) %0) unnamed_addr #4 align 2 personality ptr @__gxx_personality_v0 {
  %2 = tail call noalias noundef nonnull dereferenceable(32) ptr @_Znwm(i64 noundef 32) #30
  invoke void @_ZN7testing4TestC2Ev(ptr noundef nonnull align 8 dereferenceable(32) %2)
          to label %.noexc unwind label %8

.noexc:                                           ; preds = %1
  store ptr getelementptr inbounds nuw inrange(-16, 48) (i8, ptr @_ZTVN4absl18container_internal12_GLOBAL__N_17FixtureE, i64 16), ptr %2, align 8, !tbaa !4
  %3 = invoke noalias noundef nonnull dereferenceable(32) ptr @_Znwm(i64 noundef 32) #30
          to label %6 unwind label %4

4:                                                ; preds = %.noexc
  %5 = landingpad { ptr, i32 }
          cleanup
  tail call void @_ZN7testing4TestD2Ev(ptr noundef nonnull align 8 dereferenceable(32) %2) #27
  br label %.body

6:                                                ; preds = %.noexc
  %7 = getelementptr inbounds nuw i8, ptr %2, i64 24
  store ptr %3, ptr %7, align 8, !tbaa !341
  store ptr getelementptr inbounds nuw inrange(-16, 48) (i8, ptr @_ZTVN4absl18container_internal12_GLOBAL__N_128Fixture_ConstructOneArg_TestE, i64 16), ptr %2, align 8, !tbaa !4
  ret ptr %2

8:                                                ; preds = %1
  %9 = landingpad { ptr, i32 }
          cleanup
  br label %.body

.body:                                            ; preds = %4, %8
  %eh.lpad-body = phi { ptr, i32 } [ %9, %8 ], [ %5, %4 ]
  tail call void @_ZdlPvm(ptr noundef nonnull %2, i64 noundef 32) #29
  resume { ptr, i32 } %eh.lpad-body
}